target datalayout = "e-m:e-p270:32:32-p271:32:32-p272:64:64-i64:64-i128:128-f80:128-n8:16:32:64-S128"
target triple = "x86_64-pc-linux-gnu"

%struct.archive_read = type { %struct.archive, ptr, i32, i64, i64, %struct.archive_read_client, [16 x %struct.archive_read_filter_bidder], ptr, i32, i64, i32, i32, [16 x %struct.archive_format_descriptor], ptr, ptr, ptr, %struct.anon }
%struct.archive = type { i32, i32, ptr, i32, ptr, i32, i32, ptr, %struct.archive_string, ptr, i32, i32, ptr, ptr, i64, i64, i64, i8, i64 }
%struct.archive_string = type { ptr, i64, i64 }
%struct.archive_read_client = type { ptr, ptr, ptr, ptr, ptr, ptr, i32, i32, i64, ptr }
%struct.archive_read_filter_bidder = type { ptr, ptr, ptr }
%struct.archive_format_descriptor = type { ptr, ptr, ptr, ptr, ptr, ptr, ptr, ptr, ptr, ptr, ptr }
%struct.anon = type { ptr, ptr, i32, ptr, ptr }
%struct.cpio = type { i32, ptr, ptr, i64, i64, i64, i64, ptr, ptr, i32, i32 }

@.str.3 = private unnamed_addr constant [7 x i8] c"070707\00", align 1
@.str.4 = private unnamed_addr constant [7 x i8] c"070727\00", align 1
@.str.5 = private unnamed_addr constant [7 x i8] c"070701\00", align 1
@.str.6 = private unnamed_addr constant [7 x i8] c"070702\00", align 1

; Function Attrs: nounwind uwtable
define internal i32 @archive_read_format_cpio_bid(ptr noundef %0, i32 noundef %1) #0 {
  %3 = alloca i32, align 4
  %4 = alloca ptr, align 8
  %5 = alloca i32, align 4
  %6 = alloca ptr, align 8
  %7 = alloca ptr, align 8
  %8 = alloca i32, align 4
  %9 = alloca i32, align 4
  store ptr %0, ptr %4, align 8, !tbaa !9
  store i32 %1, ptr %5, align 4, !tbaa !11
  call void @llvm.lifetime.start.p0(i64 8, ptr %6) #8
  call void @llvm.lifetime.start.p0(i64 8, ptr %7) #8
  call void @llvm.lifetime.start.p0(i64 4, ptr %8) #8
  %10 = load ptr, ptr %4, align 8, !tbaa !9
  %11 = getelementptr inbounds nuw %struct.archive_read, ptr %10, i32 0, i32 13
  %12 = load ptr, ptr %11, align 8, !tbaa !20
  %13 = getelementptr inbounds nuw %struct.archive_format_descriptor, ptr %12, i32 0, i32 0
  %14 = load ptr, ptr %13, align 8, !tbaa !35
  store ptr %14, ptr %7, align 8, !tbaa !13
  %15 = load ptr, ptr %4, align 8, !tbaa !9
  %16 = call ptr @__archive_read_ahead(ptr noundef %15, i64 noundef 6, ptr noundef null)
  store ptr %16, ptr %6, align 8, !tbaa !37
  %17 = icmp eq ptr %16, null
  br i1 %17, label %18, label %19

18:                                               ; preds = %2
  store i32 -1, ptr %3, align 4
  store i32 1, ptr %9, align 4
  br label %97

19:                                               ; preds = %2
  store i32 0, ptr %8, align 4, !tbaa !11
  %20 = load ptr, ptr %6, align 8, !tbaa !37
  %21 = call i32 @memcmp(ptr noundef %20, ptr noundef @.str.3, i64 noundef 6) #10
  %22 = icmp eq i32 %21, 0
  br i1 %22, label %23, label %28

23:                                               ; preds = %19
  %24 = load ptr, ptr %7, align 8, !tbaa !13
  %25 = getelementptr inbounds nuw %struct.cpio, ptr %24, i32 0, i32 1
  store ptr @header_odc, ptr %25, align 8, !tbaa !38
  %26 = load i32, ptr %8, align 4, !tbaa !11
  %27 = add nsw i32 %26, 48
  store i32 %27, ptr %8, align 4, !tbaa !11
  br label %95

28:                                               ; preds = %19
  %29 = load ptr, ptr %6, align 8, !tbaa !37
  %30 = call i32 @memcmp(ptr noundef %29, ptr noundef @.str.4, i64 noundef 6) #10
  %31 = icmp eq i32 %30, 0
  br i1 %31, label %32, label %37

32:                                               ; preds = %28
  %33 = load ptr, ptr %7, align 8, !tbaa !13
  %34 = getelementptr inbounds nuw %struct.cpio, ptr %33, i32 0, i32 1
  store ptr @header_odc, ptr %34, align 8, !tbaa !38
  %35 = load i32, ptr %8, align 4, !tbaa !11
  %36 = add nsw i32 %35, 48
  store i32 %36, ptr %8, align 4, !tbaa !11
  br label %94

37:                                               ; preds = %28
  %38 = load ptr, ptr %6, align 8, !tbaa !37
  %39 = call i32 @memcmp(ptr noundef %38, ptr noundef @.str.5, i64 noundef 6) #10
  %40 = icmp eq i32 %39, 0
  br i1 %40, label %41, label %46

41:                                               ; preds = %37
  %42 = load ptr, ptr %7, align 8, !tbaa !13
  %43 = getelementptr inbounds nuw %struct.cpio, ptr %42, i32 0, i32 1
  store ptr @header_newc, ptr %43, align 8, !tbaa !38
  %44 = load i32, ptr %8, align 4, !tbaa !11
  %45 = add nsw i32 %44, 48
  store i32 %45, ptr %8, align 4, !tbaa !11
  br label %93

46:                                               ; preds = %37
  %47 = load ptr, ptr %6, align 8, !tbaa !37
  %48 = call i32 @memcmp(ptr noundef %47, ptr noundef @.str.6, i64 noundef 6) #10
  %49 = icmp eq i32 %48, 0
  br i1 %49, label %50, label %55

50:                                               ; preds = %46
  %51 = load ptr, ptr %7, align 8, !tbaa !13
  %52 = getelementptr inbounds nuw %struct.cpio, ptr %51, i32 0, i32 1
  store ptr @header_newc, ptr %52, align 8, !tbaa !38
  %53 = load i32, ptr %8, align 4, !tbaa !11
  %54 = add nsw i32 %53, 48
  store i32 %54, ptr %8, align 4, !tbaa !11
  br label %92

55:                                               ; preds = %46
  %56 = load ptr, ptr %6, align 8, !tbaa !37
  %57 = getelementptr inbounds i8, ptr %56, i64 0
  %58 = load i8, ptr %57, align 1, !tbaa !39
  %59 = zext i8 %58 to i32
  %60 = mul nsw i32 %59, 256
  %61 = load ptr, ptr %6, align 8, !tbaa !37
  %62 = getelementptr inbounds i8, ptr %61, i64 1
  %63 = load i8, ptr %62, align 1, !tbaa !39
  %64 = zext i8 %63 to i32
  %65 = add nsw i32 %60, %64
  %66 = icmp eq i32 %65, 29127
  br i1 %66, label %67, label %72

67:                                               ; preds = %55
  %68 = load ptr, ptr %7, align 8, !tbaa !13
  %69 = getelementptr inbounds nuw %struct.cpio, ptr %68, i32 0, i32 1
  store ptr @header_bin_be, ptr %69, align 8, !tbaa !38
  %70 = load i32, ptr %8, align 4, !tbaa !11
  %71 = add nsw i32 %70, 16
  store i32 %71, ptr %8, align 4, !tbaa !11
  br label %91

72:                                               ; preds = %55
  %73 = load ptr, ptr %6, align 8, !tbaa !37
  %74 = getelementptr inbounds i8, ptr %73, i64 0
  %75 = load i8, ptr %74, align 1, !tbaa !39
  %76 = zext i8 %75 to i32
  %77 = load ptr, ptr %6, align 8, !tbaa !37
  %78 = getelementptr inbounds i8, ptr %77, i64 1
  %79 = load i8, ptr %78, align 1, !tbaa !39
  %80 = zext i8 %79 to i32
  %81 = mul nsw i32 %80, 256
  %82 = add nsw i32 %76, %81
  %83 = icmp eq i32 %82, 29127
  br i1 %83, label %84, label %89

84:                                               ; preds = %72
  %85 = load ptr, ptr %7, align 8, !tbaa !13
  %86 = getelementptr inbounds nuw %struct.cpio, ptr %85, i32 0, i32 1
  store ptr @header_bin_le, ptr %86, align 8, !tbaa !38
  %87 = load i32, ptr %8, align 4, !tbaa !11
  %88 = add nsw i32 %87, 16
  store i32 %88, ptr %8, align 4, !tbaa !11
  br label %90

89:                                               ; preds = %72
  store i32 -20, ptr %3, align 4
  store i32 1, ptr %9, align 4
  br label %97

90:                                               ; preds = %84
  br label %91

91:                                               ; preds = %90, %67
  br label %92

92:                                               ; preds = %91, %50
  br label %93

93:                                               ; preds = %92, %41
  br label %94

94:                                               ; preds = %93, %32
  br label %95

95:                                               ; preds = %94, %23
  %96 = load i32, ptr %8, align 4, !tbaa !11
  store i32 %96, ptr %3, align 4
  store i32 1, ptr %9, align 4
  br label %97

97:                                               ; preds = %95, %89, %18
  call void @llvm.lifetime.end.p0(i64 4, ptr %8) #8
  call void @llvm.lifetime.end.p0(i64 8, ptr %7) #8
  call void @llvm.lifetime.end.p0(i64 8, ptr %6) #8
  %98 = load i32, ptr %3, align 4
  ret i32 %98
}