; Function Attrs: nounwind uwtable
define internal range(i32 -20, 49) i32 @archive_read_format_cpio_bid(ptr noundef %0, i32 %1) #0 {
  %3 = getelementptr inbounds nuw i8, ptr %0, i64 2072
  %4 = load ptr, ptr %3, align 8, !tbaa !13
  %5 = load ptr, ptr %4, align 8, !tbaa !28
  %6 = tail call ptr @__archive_read_ahead(ptr noundef %0, i64 noundef 6, ptr noundef null) #12
  %7 = icmp eq ptr %6, null
  br i1 %7, label %30, label %8

8:                                                ; preds = %2
  %bcmp = tail call i32 @bcmp(ptr noundef nonnull dereferenceable(6) %6, ptr noundef nonnull dereferenceable(6) @.str.3, i64 6)
  %9 = icmp eq i32 %bcmp, 0
  br i1 %9, label %.sink.split, label %10

10:                                               ; preds = %8
  %bcmp25 = tail call i32 @bcmp(ptr noundef nonnull dereferenceable(6) %6, ptr noundef nonnull dereferenceable(6) @.str.4, i64 6)
  %11 = icmp eq i32 %bcmp25, 0
  br i1 %11, label %.sink.split, label %12

12:                                               ; preds = %10
  %bcmp26 = tail call i32 @bcmp(ptr noundef nonnull dereferenceable(6) %6, ptr noundef nonnull dereferenceable(6) @.str.5, i64 6)
  %13 = icmp eq i32 %bcmp26, 0
  br i1 %13, label %.sink.split, label %14

14:                                               ; preds = %12
  %bcmp27 = tail call i32 @bcmp(ptr noundef nonnull dereferenceable(6) %6, ptr noundef nonnull dereferenceable(6) @.str.6, i64 6)
  %15 = icmp eq i32 %bcmp27, 0
  br i1 %15, label %.sink.split, label %16

16:                                               ; preds = %14
  %17 = load i8, ptr %6, align 1, !tbaa !30
  %18 = zext i8 %17 to i32
  %19 = shl nuw nsw i32 %18, 8
  %20 = getelementptr inbounds nuw i8, ptr %6, i64 1
  %21 = load i8, ptr %20, align 1, !tbaa !30
  %22 = zext i8 %21 to i32
  %23 = or disjoint i32 %19, %22
  %24 = icmp eq i32 %23, 29127
  br i1 %24, label %.sink.split, label %25

25:                                               ; preds = %16
  %26 = shl nuw nsw i32 %22, 8
  %27 = or disjoint i32 %26, %18
  %28 = icmp eq i32 %27, 29127
  br i1 %28, label %.sink.split, label %30

.sink.split:                                      ; preds = %25, %16, %14, %12, %10, %8
  %header_odc.sink = phi ptr [ @header_odc, %8 ], [ @header_odc, %10 ], [ @header_newc, %12 ], [ @header_newc, %14 ], [ @header_bin_be, %16 ], [ @header_bin_le, %25 ]
  %.023.ph = phi i32 [ 48, %8 ], [ 48, %10 ], [ 48, %12 ], [ 48, %14 ], [ 16, %16 ], [ 16, %25 ]
  %29 = getelementptr inbounds nuw i8, ptr %5, i64 8
  store ptr %header_odc.sink, ptr %29, align 8, !tbaa !31
  br label %30

30:                                               ; preds = %.sink.split, %25, %2
  %.023 = phi i32 [ -1, %2 ], [ -20, %25 ], [ %.023.ph, %.sink.split ]
  ret i32 %.023
}